; Function Attrs: mustprogress nofree norecurse nosync nounwind willreturn memory(read, inaccessiblemem: none) uwtable
define hidden noundef zeroext i1 @_ZN20ControlFlowOptimizer16can_delete_blockEP10BlockBegin(ptr nocapture noundef nonnull readnone align 8 dereferenceable(24) %0, ptr nocapture noundef readonly %1) local_unnamed_addr #6 align 2 {
  %3 = getelementptr inbounds i8, ptr %1, i64 216
  %4 = load ptr, ptr %3, align 8
  %5 = getelementptr inbounds i8, ptr %4, i64 104
  %6 = load ptr, ptr %5, align 8
  %.not.i.i = icmp eq ptr %6, null
  br i1 %.not.i.i, label %_ZNK10BlockBegin13number_of_suxEv.exit.thread, label %_ZNK10BlockBegin13number_of_suxEv.exit

_ZNK10BlockBegin13number_of_suxEv.exit:           ; preds = %2
  %7 = load i32, ptr %6, align 4
  %.not = icmp eq i32 %7, 1
  br i1 %.not, label %8, label %_ZNK10BlockBegin13number_of_suxEv.exit.thread

8:                                                ; preds = %_ZNK10BlockBegin13number_of_suxEv.exit
  %9 = getelementptr inbounds i8, ptr %1, i64 224
  %10 = load i32, ptr %9, align 4
  %.not7 = icmp eq i32 %10, 0
  br i1 %.not7, label %11, label %_ZNK10BlockBegin13number_of_suxEv.exit.thread

11:                                               ; preds = %8
  %12 = getelementptr inbounds i8, ptr %1, i64 132
  %13 = load i32, ptr %12, align 4
  %14 = and i32 %13, 7
  %.not9 = icmp eq i32 %14, 0
  br i1 %.not9, label %15, label %_ZNK10BlockBegin13number_of_suxEv.exit.thread

15:                                               ; preds = %11
  %16 = getelementptr inbounds i8, ptr %1, i64 304
  %17 = load ptr, ptr %16, align 8
  %18 = load i32, ptr %17, align 4
  %19 = icmp eq i32 %18, 2
  br i1 %19, label %20, label %28

20:                                               ; preds = %15
  %21 = getelementptr inbounds i8, ptr %17, i64 8
  %22 = load ptr, ptr %21, align 8
  %23 = getelementptr i8, ptr %22, i64 8
  %24 = load ptr, ptr %23, align 8
  %25 = getelementptr inbounds i8, ptr %24, i64 24
  %26 = load ptr, ptr %25, align 8
  %27 = icmp eq ptr %26, null
  br i1 %27, label %_ZNK10BlockBegin13number_of_suxEv.exit.thread, label %28

28:                                               ; preds = %20, %15
  br label %_ZNK10BlockBegin13number_of_suxEv.exit.thread

_ZNK10BlockBegin13number_of_suxEv.exit.thread:    ; preds = %2, %20, %_ZNK10BlockBegin13number_of_suxEv.exit, %8, %11, %28
  %.0 = phi i1 [ false, %28 ], [ false, %11 ], [ false, %8 ], [ false, %_ZNK10BlockBegin13number_of_suxEv.exit ], [ true, %20 ], [ false, %2 ]
  ret i1 %.0
}